target datalayout = "e-m:e-p270:32:32-p271:32:32-p272:64:64-i64:64-i128:128-f80:128-n8:16:32:64-S128"
target triple = "x86_64-pc-linux-gnu"

%"class.ozz::animation::Skeleton" = type { %"struct.ozz::span", %"struct.ozz::span.0", %"struct.ozz::span.1" }
%"struct.ozz::span" = type { ptr, i64 }
%"struct.ozz::span.0" = type { ptr, i64 }
%"struct.ozz::span.1" = type { ptr, i64 }
%"struct.ozz::span.2" = type { ptr, i64 }
%"struct.ozz::math::SoaTransform" = type { %"struct.ozz::math::SoaFloat3", %"struct.ozz::math::SoaQuaternion", %"struct.ozz::math::SoaFloat3" }
%"struct.ozz::math::SoaQuaternion" = type { <4 x float>, <4 x float>, <4 x float>, <4 x float> }
%"struct.ozz::math::SoaFloat3" = type { <4 x float>, <4 x float>, <4 x float> }

; Function Attrs: mustprogress nounwind uwtable
define linkonce_odr dso_local noundef ptr @_ZNK3ozz4spanIsE3endEv(ptr noundef nonnull align 8 dereferenceable(16) %0) #5 comdat align 2 {
  %2 = alloca ptr, align 8
  store ptr %0, ptr %2, align 8
  %3 = load ptr, ptr %2, align 8
  %4 = getelementptr inbounds %"struct.ozz::span.0", ptr %3, i32 0, i32 0
  %5 = load ptr, ptr %4, align 8
  %6 = getelementptr inbounds %"struct.ozz::span.0", ptr %3, i32 0, i32 1
  %7 = load i64, ptr %6, align 8
  %8 = getelementptr inbounds i16, ptr %5, i64 %7
  ret ptr %8
}

; Function Attrs: mustprogress nounwind uwtable
define linkonce_odr dso_local void @_ZN3ozz4spanIsEC2EPsm(ptr noundef nonnull align 8 dereferenceable(16) %0, ptr noundef %1, i64 noundef %2) unnamed_addr #5 comdat align 2 {
  %4 = alloca ptr, align 8
  %5 = alloca ptr, align 8
  %6 = alloca i64, align 8
  store ptr %0, ptr %4, align 8
  store ptr %1, ptr %5, align 8
  store i64 %2, ptr %6, align 8
  %7 = load ptr, ptr %4, align 8
  %8 = getelementptr inbounds %"struct.ozz::span.0", ptr %7, i32 0, i32 0
  %9 = load ptr, ptr %5, align 8
  store ptr %9, ptr %8, align 8
  %10 = getelementptr inbounds %"struct.ozz::span.0", ptr %7, i32 0, i32 1
  %11 = load i64, ptr %6, align 8
  store i64 %11, ptr %10, align 8
  ret void
}

; Function Attrs: mustprogress nounwind uwtable
define linkonce_odr dso_local noundef ptr @_ZNK3ozz4spanIPcE3endEv(ptr noundef nonnull align 8 dereferenceable(16) %0) #5 comdat align 2 {
  %2 = alloca ptr, align 8
  store ptr %0, ptr %2, align 8
  %3 = load ptr, ptr %2, align 8
  %4 = getelementptr inbounds %"struct.ozz::span.1", ptr %3, i32 0, i32 0
  %5 = load ptr, ptr %4, align 8
  %6 = getelementptr inbounds %"struct.ozz::span.1", ptr %3, i32 0, i32 1
  %7 = load i64, ptr %6, align 8
  %8 = getelementptr inbounds ptr, ptr %5, i64 %7
  ret ptr %8
}

; Function Attrs: mustprogress nounwind uwtable
define linkonce_odr dso_local void @_ZN3ozz4spanIPcEC2EPS1_m(ptr noundef nonnull align 8 dereferenceable(16) %0, ptr noundef %1, i64 noundef %2) unnamed_addr #5 comdat align 2 {
  %4 = alloca ptr, align 8
  %5 = alloca ptr, align 8
  %6 = alloca i64, align 8
  store ptr %0, ptr %4, align 8
  store ptr %1, ptr %5, align 8
  store i64 %2, ptr %6, align 8
  %7 = load ptr, ptr %4, align 8
  %8 = getelementptr inbounds %"struct.ozz::span.1", ptr %7, i32 0, i32 0
  %9 = load ptr, ptr %5, align 8
  store ptr %9, ptr %8, align 8
  %10 = getelementptr inbounds %"struct.ozz::span.1", ptr %7, i32 0, i32 1
  %11 = load i64, ptr %6, align 8
  store i64 %11, ptr %10, align 8
  ret void
}

; Function Attrs: mustprogress nounwind uwtable
define linkonce_odr dso_local void @_ZN3ozz4spanIhEaSERKS1_(ptr noundef nonnull align 8 dereferenceable(16) %0, ptr noundef nonnull align 8 dereferenceable(16) %1) #5 comdat align 2 {
  %3 = alloca ptr, align 8
  %4 = alloca ptr, align 8
  store ptr %0, ptr %3, align 8
  store ptr %1, ptr %4, align 8
  %5 = load ptr, ptr %3, align 8
  %6 = load ptr, ptr %4, align 8
  %7 = getelementptr inbounds %"struct.ozz::span.2", ptr %6, i32 0, i32 0
  %8 = load ptr, ptr %7, align 8
  %9 = getelementptr inbounds %"struct.ozz::span.2", ptr %5, i32 0, i32 0
  store ptr %8, ptr %9, align 8
  %10 = load ptr, ptr %4, align 8
  %11 = getelementptr inbounds %"struct.ozz::span.2", ptr %10, i32 0, i32 1
  %12 = load i64, ptr %11, align 8
  %13 = getelementptr inbounds %"struct.ozz::span.2", ptr %5, i32 0, i32 1
  store i64 %12, ptr %13, align 8
  ret void
}

; Function Attrs: mustprogress nounwind uwtable
define linkonce_odr dso_local void @_ZN3ozz4spanIhEC2EPhS2_(ptr noundef nonnull align 8 dereferenceable(16) %0, ptr noundef %1, ptr noundef %2) unnamed_addr #5 comdat align 2 {
  %4 = alloca ptr, align 8
  %5 = alloca ptr, align 8
  %6 = alloca ptr, align 8
  store ptr %0, ptr %4, align 8
  store ptr %1, ptr %5, align 8
  store ptr %2, ptr %6, align 8
  %7 = load ptr, ptr %4, align 8
  %8 = getelementptr inbounds %"struct.ozz::span.2", ptr %7, i32 0, i32 0
  %9 = load ptr, ptr %5, align 8
  store ptr %9, ptr %8, align 8
  %10 = getelementptr inbounds %"struct.ozz::span.2", ptr %7, i32 0, i32 1
  %11 = load ptr, ptr %6, align 8
  %12 = load ptr, ptr %5, align 8
  %13 = ptrtoint ptr %11 to i64
  %14 = ptrtoint ptr %12 to i64
  %15 = sub i64 %13, %14
  store i64 %15, ptr %10, align 8
  ret void
}

; Function Attrs: mustprogress nounwind uwtable
define linkonce_odr dso_local noundef ptr @_ZNK3ozz4spanIhE3endEv(ptr noundef nonnull align 8 dereferenceable(16) %0) #5 comdat align 2 {
  %2 = alloca ptr, align 8
  store ptr %0, ptr %2, align 8
  %3 = load ptr, ptr %2, align 8
  %4 = getelementptr inbounds %"struct.ozz::span.2", ptr %3, i32 0, i32 0
  %5 = load ptr, ptr %4, align 8
  %6 = getelementptr inbounds %"struct.ozz::span.2", ptr %3, i32 0, i32 1
  %7 = load i64, ptr %6, align 8
  %8 = getelementptr inbounds i8, ptr %5, i64 %7
  ret ptr %8
}

; Function Attrs: mustprogress nounwind uwtable
define linkonce_odr dso_local noundef ptr @_ZNK3ozz4spanINS_4math12SoaTransformEE3endEv(ptr noundef nonnull align 8 dereferenceable(16) %0) #5 comdat align 2 {
  %2 = alloca ptr, align 8
  store ptr %0, ptr %2, align 8
  %3 = load ptr, ptr %2, align 8
  %4 = getelementptr inbounds %"struct.ozz::span", ptr %3, i32 0, i32 0
  %5 = load ptr, ptr %4, align 8
  %6 = getelementptr inbounds %"struct.ozz::span", ptr %3, i32 0, i32 1
  %7 = load i64, ptr %6, align 8
  %8 = getelementptr inbounds %"struct.ozz::math::SoaTransform", ptr %5, i64 %7
  ret ptr %8
}

; Function Attrs: mustprogress nounwind uwtable
define linkonce_odr dso_local void @_ZN3ozz4spanINS_4math12SoaTransformEEC2EPS2_m(ptr noundef nonnull align 8 dereferenceable(16) %0, ptr noundef %1, i64 noundef %2) unnamed_addr #5 comdat align 2 {
  %4 = alloca ptr, align 8
  %5 = alloca ptr, align 8
  %6 = alloca i64, align 8
  store ptr %0, ptr %4, align 8
  store ptr %1, ptr %5, align 8
  store i64 %2, ptr %6, align 8
  %7 = load ptr, ptr %4, align 8
  %8 = getelementptr inbounds %"struct.ozz::span", ptr %7, i32 0, i32 0
  %9 = load ptr, ptr %5, align 8
  store ptr %9, ptr %8, align 8
  %10 = getelementptr inbounds %"struct.ozz::span", ptr %7, i32 0, i32 1
  %11 = load i64, ptr %6, align 8
  store i64 %11, ptr %10, align 8
  ret void
}

; Function Attrs: mustprogress nounwind uwtable
define linkonce_odr dso_local noundef ptr @_ZNK3ozz4spanIhE4dataEv(ptr noundef nonnull align 8 dereferenceable(16) %0) #5 comdat align 2 {
  %2 = alloca ptr, align 8
  store ptr %0, ptr %2, align 8
  %3 = load ptr, ptr %2, align 8
  %4 = getelementptr inbounds %"struct.ozz::span.2", ptr %3, i32 0, i32 0
  %5 = load ptr, ptr %4, align 8
  ret ptr %5
}

; Function Attrs: mustprogress nounwind uwtable
define linkonce_odr dso_local void @_ZN3ozz4spanIsEaSERKS1_(ptr noundef nonnull align 8 dereferenceable(16) %0, ptr noundef nonnull align 8 dereferenceable(16) %1) #5 comdat align 2 {
  %3 = alloca ptr, align 8
  %4 = alloca ptr, align 8
  store ptr %0, ptr %3, align 8
  store ptr %1, ptr %4, align 8
  %5 = load ptr, ptr %3, align 8
  %6 = load ptr, ptr %4, align 8
  %7 = getelementptr inbounds %"struct.ozz::span.0", ptr %6, i32 0, i32 0
  %8 = load ptr, ptr %7, align 8
  %9 = getelementptr inbounds %"struct.ozz::span.0", ptr %5, i32 0, i32 0
  store ptr %8, ptr %9, align 8
  %10 = load ptr, ptr %4, align 8
  %11 = getelementptr inbounds %"struct.ozz::span.0", ptr %10, i32 0, i32 1
  %12 = load i64, ptr %11, align 8
  %13 = getelementptr inbounds %"struct.ozz::span.0", ptr %5, i32 0, i32 1
  store i64 %12, ptr %13, align 8
  ret void
}

; Function Attrs: mustprogress uwtable
define linkonce_odr dso_local { ptr, i64 } @_ZN3ozz9fill_spanIsEENS_4spanIT_EERNS1_IhEEm(ptr noundef nonnull align 8 dereferenceable(16) %0, i64 noundef %1) #4 comdat {
  %3 = alloca %"struct.ozz::span.0", align 8
  %4 = alloca ptr, align 8
  %5 = alloca i64, align 8
  %6 = alloca %"struct.ozz::span.2", align 8
  store ptr %0, ptr %4, align 8
  store i64 %1, ptr %5, align 8
  %7 = load ptr, ptr %4, align 8
  %8 = call noundef ptr @_ZNK3ozz4spanIhE4dataEv(ptr noundef nonnull align 8 dereferenceable(16) %7)
  %9 = load i64, ptr %5, align 8
  call void @_ZN3ozz4spanIsEC2EPsm(ptr noundef nonnull align 8 dereferenceable(16) %3, ptr noundef %8, i64 noundef %9)
  %10 = call noundef ptr @_ZNK3ozz4spanIsE3endEv(ptr noundef nonnull align 8 dereferenceable(16) %3)
  %11 = load ptr, ptr %4, align 8
  %12 = call noundef ptr @_ZNK3ozz4spanIhE3endEv(ptr noundef nonnull align 8 dereferenceable(16) %11)
  call void @_ZN3ozz4spanIhEC2EPhS2_(ptr noundef nonnull align 8 dereferenceable(16) %6, ptr noundef %10, ptr noundef %12)
  %13 = load ptr, ptr %4, align 8
  call void @_ZN3ozz4spanIhEaSERKS1_(ptr noundef nonnull align 8 dereferenceable(16) %13, ptr noundef nonnull align 8 dereferenceable(16) %6)
  %14 = load { ptr, i64 }, ptr %3, align 8
  ret { ptr, i64 } %14
}

; Function Attrs: mustprogress nounwind uwtable
define linkonce_odr dso_local void @_ZN3ozz4spanIPcEaSERKS2_(ptr noundef nonnull align 8 dereferenceable(16) %0, ptr noundef nonnull align 8 dereferenceable(16) %1) #5 comdat align 2 {
  %3 = alloca ptr, align 8
  %4 = alloca ptr, align 8
  store ptr %0, ptr %3, align 8
  store ptr %1, ptr %4, align 8
  %5 = load ptr, ptr %3, align 8
  %6 = load ptr, ptr %4, align 8
  %7 = getelementptr inbounds %"struct.ozz::span.1", ptr %6, i32 0, i32 0
  %8 = load ptr, ptr %7, align 8
  %9 = getelementptr inbounds %"struct.ozz::span.1", ptr %5, i32 0, i32 0
  store ptr %8, ptr %9, align 8
  %10 = load ptr, ptr %4, align 8
  %11 = getelementptr inbounds %"struct.ozz::span.1", ptr %10, i32 0, i32 1
  %12 = load i64, ptr %11, align 8
  %13 = getelementptr inbounds %"struct.ozz::span.1", ptr %5, i32 0, i32 1
  store i64 %12, ptr %13, align 8
  ret void
}

; Function Attrs: mustprogress uwtable
define linkonce_odr dso_local { ptr, i64 } @_ZN3ozz9fill_spanIPcEENS_4spanIT_EERNS2_IhEEm(ptr noundef nonnull align 8 dereferenceable(16) %0, i64 noundef %1) #4 comdat {
  %3 = alloca %"struct.ozz::span.1", align 8
  %4 = alloca ptr, align 8
  %5 = alloca i64, align 8
  %6 = alloca %"struct.ozz::span.2", align 8
  store ptr %0, ptr %4, align 8
  store i64 %1, ptr %5, align 8
  %7 = load ptr, ptr %4, align 8
  %8 = call noundef ptr @_ZNK3ozz4spanIhE4dataEv(ptr noundef nonnull align 8 dereferenceable(16) %7)
  %9 = load i64, ptr %5, align 8
  call void @_ZN3ozz4spanIPcEC2EPS1_m(ptr noundef nonnull align 8 dereferenceable(16) %3, ptr noundef %8, i64 noundef %9)
  %10 = call noundef ptr @_ZNK3ozz4spanIPcE3endEv(ptr noundef nonnull align 8 dereferenceable(16) %3)
  %11 = load ptr, ptr %4, align 8
  %12 = call noundef ptr @_ZNK3ozz4spanIhE3endEv(ptr noundef nonnull align 8 dereferenceable(16) %11)
  call void @_ZN3ozz4spanIhEC2EPhS2_(ptr noundef nonnull align 8 dereferenceable(16) %6, ptr noundef %10, ptr noundef %12)
  %13 = load ptr, ptr %4, align 8
  call void @_ZN3ozz4spanIhEaSERKS1_(ptr noundef nonnull align 8 dereferenceable(16) %13, ptr noundef nonnull align 8 dereferenceable(16) %6)
  %14 = load { ptr, i64 }, ptr %3, align 8
  ret { ptr, i64 } %14
}

; Function Attrs: mustprogress nounwind uwtable
define linkonce_odr dso_local void @_ZN3ozz4spanINS_4math12SoaTransformEEaSERKS3_(ptr noundef nonnull align 8 dereferenceable(16) %0, ptr noundef nonnull align 8 dereferenceable(16) %1) #5 comdat align 2 {
  %3 = alloca ptr, align 8
  %4 = alloca ptr, align 8
  store ptr %0, ptr %3, align 8
  store ptr %1, ptr %4, align 8
  %5 = load ptr, ptr %3, align 8
  %6 = load ptr, ptr %4, align 8
  %7 = getelementptr inbounds %"struct.ozz::span", ptr %6, i32 0, i32 0
  %8 = load ptr, ptr %7, align 8
  %9 = getelementptr inbounds %"struct.ozz::span", ptr %5, i32 0, i32 0
  store ptr %8, ptr %9, align 8
  %10 = load ptr, ptr %4, align 8
  %11 = getelementptr inbounds %"struct.ozz::span", ptr %10, i32 0, i32 1
  %12 = load i64, ptr %11, align 8
  %13 = getelementptr inbounds %"struct.ozz::span", ptr %5, i32 0, i32 1
  store i64 %12, ptr %13, align 8
  ret void
}

; Function Attrs: mustprogress uwtable
define linkonce_odr dso_local { ptr, i64 } @_ZN3ozz9fill_spanINS_4math12SoaTransformEEENS_4spanIT_EERNS3_IhEEm(ptr noundef nonnull align 8 dereferenceable(16) %0, i64 noundef %1) #4 comdat {
  %3 = alloca %"struct.ozz::span", align 8
  %4 = alloca ptr, align 8
  %5 = alloca i64, align 8
  %6 = alloca %"struct.ozz::span.2", align 8
  store ptr %0, ptr %4, align 8
  store i64 %1, ptr %5, align 8
  %7 = load ptr, ptr %4, align 8
  %8 = call noundef ptr @_ZNK3ozz4spanIhE4dataEv(ptr noundef nonnull align 8 dereferenceable(16) %7)
  %9 = load i64, ptr %5, align 8
  call void @_ZN3ozz4spanINS_4math12SoaTransformEEC2EPS2_m(ptr noundef nonnull align 8 dereferenceable(16) %3, ptr noundef %8, i64 noundef %9)
  %10 = call noundef ptr @_ZNK3ozz4spanINS_4math12SoaTransformEE3endEv(ptr noundef nonnull align 8 dereferenceable(16) %3)
  %11 = load ptr, ptr %4, align 8
  %12 = call noundef ptr @_ZNK3ozz4spanIhE3endEv(ptr noundef nonnull align 8 dereferenceable(16) %11)
  call void @_ZN3ozz4spanIhEC2EPhS2_(ptr noundef nonnull align 8 dereferenceable(16) %6, ptr noundef %10, ptr noundef %12)
  %13 = load ptr, ptr %4, align 8
  call void @_ZN3ozz4spanIhEaSERKS1_(ptr noundef nonnull align 8 dereferenceable(16) %13, ptr noundef nonnull align 8 dereferenceable(16) %6)
  %14 = load { ptr, i64 }, ptr %3, align 8
  ret { ptr, i64 } %14
}

; Function Attrs: mustprogress nounwind uwtable
define linkonce_odr dso_local void @_ZN3ozz4spanIhEC2EPhm(ptr noundef nonnull align 8 dereferenceable(16) %0, ptr noundef %1, i64 noundef %2) unnamed_addr #5 comdat align 2 {
  %4 = alloca ptr, align 8
  %5 = alloca ptr, align 8
  %6 = alloca i64, align 8
  store ptr %0, ptr %4, align 8
  store ptr %1, ptr %5, align 8
  store i64 %2, ptr %6, align 8
  %7 = load ptr, ptr %4, align 8
  %8 = getelementptr inbounds %"struct.ozz::span.2", ptr %7, i32 0, i32 0
  %9 = load ptr, ptr %5, align 8
  store ptr %9, ptr %8, align 8
  %10 = getelementptr inbounds %"struct.ozz::span.2", ptr %7, i32 0, i32 1
  %11 = load i64, ptr %6, align 8
  store i64 %11, ptr %10, align 8
  ret void
}

; Function Attrs: mustprogress uwtable
define dso_local noundef ptr @_ZN3ozz9animation8Skeleton8AllocateEmm(ptr noundef nonnull align 8 dereferenceable(48) %0, i64 noundef %1, i64 noundef %2) #4 align 2 {
  %4 = alloca ptr, align 8
  %5 = alloca ptr, align 8
  %6 = alloca i64, align 8
  %7 = alloca i64, align 8
  %8 = alloca i64, align 8
  %9 = alloca i64, align 8
  %10 = alloca i64, align 8
  %11 = alloca i64, align 8
  %12 = alloca i64, align 8
  %13 = alloca %"struct.ozz::span.2", align 8
  %14 = alloca %"struct.ozz::span", align 8
  %15 = alloca %"struct.ozz::span.1", align 8
  %16 = alloca %"struct.ozz::span.0", align 8
  store ptr %0, ptr %5, align 8
  store i64 %1, ptr %6, align 8
  store i64 %2, ptr %7, align 8
  %17 = load ptr, ptr %5, align 8
  %18 = load i64, ptr %7, align 8
  %19 = icmp eq i64 %18, 0
  br i1 %19, label %20, label %21

20:                                               ; preds = %3
  store ptr null, ptr %4, align 8
  br label %67

21:                                               ; preds = %3
  %22 = load i64, ptr %7, align 8
  %23 = add i64 %22, 3
  %24 = udiv i64 %23, 4
  store i64 %24, ptr %8, align 8
  %25 = load i64, ptr %8, align 8
  %26 = mul i64 %25, 160
  store i64 %26, ptr %9, align 8
  %27 = load i64, ptr %7, align 8
  %28 = mul i64 %27, 8
  store i64 %28, ptr %10, align 8
  %29 = load i64, ptr %7, align 8
  %30 = mul i64 %29, 2
  store i64 %30, ptr %11, align 8
  %31 = load i64, ptr %10, align 8
  %32 = load i64, ptr %6, align 8
  %33 = add i64 %31, %32
  %34 = load i64, ptr %11, align 8
  %35 = add i64 %33, %34
  %36 = load i64, ptr %9, align 8
  %37 = add i64 %35, %36
  store i64 %37, ptr %12, align 8
  %38 = call noundef ptr @_ZN3ozz6memory17default_allocatorEv()
  %39 = load i64, ptr %12, align 8
  %40 = load ptr, ptr %38, align 8
  %41 = getelementptr inbounds ptr, ptr %40, i64 2
  %42 = load ptr, ptr %41, align 8
  %43 = call noundef ptr %42(ptr noundef nonnull align 8 dereferenceable(8) %38, i64 noundef %39, i64 noundef 16)
  %44 = load i64, ptr %12, align 8
  call void @_ZN3ozz4spanIhEC2EPhm(ptr noundef nonnull align 8 dereferenceable(16) %13, ptr noundef %43, i64 noundef %44)
  %45 = load i64, ptr %8, align 8
  %46 = call { ptr, i64 } @_ZN3ozz9fill_spanINS_4math12SoaTransformEEENS_4spanIT_EERNS3_IhEEm(ptr noundef nonnull align 8 dereferenceable(16) %13, i64 noundef %45)
  %47 = getelementptr inbounds { ptr, i64 }, ptr %14, i32 0, i32 0
  %48 = extractvalue { ptr, i64 } %46, 0
  store ptr %48, ptr %47, align 8
  %49 = getelementptr inbounds { ptr, i64 }, ptr %14, i32 0, i32 1
  %50 = extractvalue { ptr, i64 } %46, 1
  store i64 %50, ptr %49, align 8
  %51 = getelementptr inbounds %"class.ozz::animation::Skeleton", ptr %17, i32 0, i32 0
  call void @_ZN3ozz4spanINS_4math12SoaTransformEEaSERKS3_(ptr noundef nonnull align 8 dereferenceable(16) %51, ptr noundef nonnull align 8 dereferenceable(16) %14)
  %52 = load i64, ptr %7, align 8
  %53 = call { ptr, i64 } @_ZN3ozz9fill_spanIPcEENS_4spanIT_EERNS2_IhEEm(ptr noundef nonnull align 8 dereferenceable(16) %13, i64 noundef %52)
  %54 = getelementptr inbounds { ptr, i64 }, ptr %15, i32 0, i32 0
  %55 = extractvalue { ptr, i64 } %53, 0
  store ptr %55, ptr %54, align 8
  %56 = getelementptr inbounds { ptr, i64 }, ptr %15, i32 0, i32 1
  %57 = extractvalue { ptr, i64 } %53, 1
  store i64 %57, ptr %56, align 8
  %58 = getelementptr inbounds %"class.ozz::animation::Skeleton", ptr %17, i32 0, i32 2
  call void @_ZN3ozz4spanIPcEaSERKS2_(ptr noundef nonnull align 8 dereferenceable(16) %58, ptr noundef nonnull align 8 dereferenceable(16) %15)
  %59 = load i64, ptr %7, align 8
  %60 = call { ptr, i64 } @_ZN3ozz9fill_spanIsEENS_4spanIT_EERNS1_IhEEm(ptr noundef nonnull align 8 dereferenceable(16) %13, i64 noundef %59)
  %61 = getelementptr inbounds { ptr, i64 }, ptr %16, i32 0, i32 0
  %62 = extractvalue { ptr, i64 } %60, 0
  store ptr %62, ptr %61, align 8
  %63 = getelementptr inbounds { ptr, i64 }, ptr %16, i32 0, i32 1
  %64 = extractvalue { ptr, i64 } %60, 1
  store i64 %64, ptr %63, align 8
  %65 = getelementptr inbounds %"class.ozz::animation::Skeleton", ptr %17, i32 0, i32 1
  call void @_ZN3ozz4spanIsEaSERKS1_(ptr noundef nonnull align 8 dereferenceable(16) %65, ptr noundef nonnull align 8 dereferenceable(16) %16)
  %66 = call noundef ptr @_ZNK3ozz4spanIhE4dataEv(ptr noundef nonnull align 8 dereferenceable(16) %13)
  store ptr %66, ptr %4, align 8
  br label %67

67:                                               ; preds = %21, %20
  %68 = load ptr, ptr %4, align 8
  ret ptr %68
}