; Function Attrs: mustprogress uwtable
define dso_local noundef ptr @_ZN3ozz9animation8Skeleton8AllocateEmm(ptr nocapture noundef nonnull writeonly align 8 dereferenceable(48) %0, i64 noundef %1, i64 noundef %2) local_unnamed_addr #6 align 2 {
  %4 = icmp eq i64 %2, 0
  br i1 %4, label %24, label %5

5:                                                ; preds = %3
  %6 = add i64 %2, 3
  %7 = lshr i64 %6, 2
  %8 = mul i64 %7, 160
  %reass.mul = mul i64 %2, 10
  %9 = add i64 %reass.mul, %1
  %10 = add i64 %9, %8
  %11 = tail call noundef ptr @_ZN3ozz6memory17default_allocatorEv()
  %12 = load ptr, ptr %11, align 8
  %13 = getelementptr inbounds i8, ptr %12, i64 16
  %14 = load ptr, ptr %13, align 8
  %15 = tail call noundef ptr %14(ptr noundef nonnull align 8 dereferenceable(8) %11, i64 noundef %10, i64 noundef 16)
  %16 = getelementptr inbounds %"struct.ozz::math::SoaTransform", ptr %15, i64 %7
  store ptr %15, ptr %0, align 8
  %17 = getelementptr inbounds i8, ptr %0, i64 8
  store i64 %7, ptr %17, align 8
  %18 = getelementptr inbounds ptr, ptr %16, i64 %2
  %19 = getelementptr inbounds i8, ptr %0, i64 32
  store ptr %16, ptr %19, align 8
  %20 = getelementptr inbounds i8, ptr %0, i64 40
  store i64 %2, ptr %20, align 8
  %21 = getelementptr inbounds i16, ptr %18, i64 %2
  %22 = getelementptr inbounds i8, ptr %0, i64 16
  store ptr %18, ptr %22, align 8
  %23 = getelementptr inbounds i8, ptr %0, i64 24
  store i64 %2, ptr %23, align 8
  br label %24

24:                                               ; preds = %3, %5
  %.0 = phi ptr [ %21, %5 ], [ null, %3 ]
  ret ptr %.0
}